target datalayout = "e-m:e-p270:32:32-p271:32:32-p272:64:64-i64:64-i128:128-f80:128-n8:16:32:64-S128"
target triple = "x86_64-pc-linux-gnu"

%struct.VuDev = type { i32, i32, ptr, ptr, %struct.VuDevInflightInfo, i32, %union.pthread_mutex_t, i32, i64, ptr, i64, i64, i8, i16, ptr, ptr, ptr, ptr, ptr, i32, i8 }
%struct.VuDevInflightInfo = type { i32, ptr, i64 }
%union.pthread_mutex_t = type { %struct.__pthread_mutex_s }
%struct.__pthread_mutex_s = type { i32, i32, i32, i32, i32, i16, i16, %struct.__pthread_internal_list }
%struct.__pthread_internal_list = type { ptr, ptr }

@.str.40 = private unnamed_addr constant [50 x i8] c"../qemu/subprojects/libvhost-user/libvhost-user.c\00", align 1
@.str.102 = private unnamed_addr constant [26 x i8] c"Error writing eventfd: %s\00", align 1
@.str.110 = private unnamed_addr constant [62 x i8] c"dev->log_size > ((address + length - 1) / VHOST_LOG_PAGE / 8)\00", align 1
@__PRETTY_FUNCTION__.vu_log_write = private unnamed_addr constant [47 x i8] c"void vu_log_write(VuDev *, uint64_t, uint64_t)\00", align 1

; Function Attrs: nounwind uwtable
define internal void @vu_log_kick(ptr noundef %0) #0 {
  %2 = alloca ptr, align 8
  store ptr %0, ptr %2, align 8
  %3 = load ptr, ptr %2, align 8
  %4 = getelementptr inbounds nuw %struct.VuDev, ptr %3, i32 0, i32 5
  %5 = load i32, ptr %4, align 8
  %6 = icmp ne i32 %5, -1
  br i1 %6, label %7, label %21

7:                                                ; preds = %1
  br label %8

8:                                                ; preds = %7
  br label %9

9:                                                ; preds = %8
  %10 = load ptr, ptr %2, align 8
  %11 = getelementptr inbounds nuw %struct.VuDev, ptr %10, i32 0, i32 5
  %12 = load i32, ptr %11, align 8
  %13 = call i32 @eventfd_write(i32 noundef %12, i64 noundef 1)
  %14 = icmp slt i32 %13, 0
  br i1 %14, label %15, label %20

15:                                               ; preds = %9
  %16 = load ptr, ptr %2, align 8
  %17 = call ptr @__errno_location() #14
  %18 = load i32, ptr %17, align 4
  %19 = call ptr @strerror(i32 noundef %18) #13
  call void (ptr, ptr, ...) @vu_panic(ptr noundef %16, ptr noundef @.str.102, ptr noundef %19)
  br label %20

20:                                               ; preds = %15, %9
  br label %21

21:                                               ; preds = %20, %1
  ret void
}

; Function Attrs: nounwind uwtable
define internal void @vu_log_page(ptr noundef %0, i64 noundef %1) #0 {
  %3 = alloca ptr, align 8
  %4 = alloca i64, align 8
  %5 = alloca i8, align 1
  %6 = alloca i8, align 1
  store ptr %0, ptr %3, align 8
  store i64 %1, ptr %4, align 8
  br label %7

7:                                                ; preds = %2
  br label %8

8:                                                ; preds = %7
  %9 = load ptr, ptr %3, align 8
  %10 = load i64, ptr %4, align 8
  %11 = udiv i64 %10, 8
  %12 = getelementptr inbounds nuw i8, ptr %9, i64 %11
  %13 = load i64, ptr %4, align 8
  %14 = urem i64 %13, 8
  %15 = trunc i64 %14 to i32
  %16 = shl i32 1, %15
  %17 = trunc i32 %16 to i8
  store i8 %17, ptr %5, align 1
  %18 = load i8, ptr %5, align 1
  %19 = atomicrmw or ptr %12, i8 %18 seq_cst, align 1
  store i8 %19, ptr %6, align 1
  ret void
}

; Function Attrs: nounwind uwtable
define internal void @vu_log_write(ptr noundef %0, i64 noundef %1, i64 noundef %2) #0 {
  %4 = alloca ptr, align 8
  %5 = alloca i64, align 8
  %6 = alloca i64, align 8
  %7 = alloca i64, align 8
  %8 = alloca i32, align 4
  store ptr %0, ptr %4, align 8
  store i64 %1, ptr %5, align 8
  store i64 %2, ptr %6, align 8
  call void @llvm.lifetime.start.p0(i64 8, ptr %7) #13
  store i64 0, ptr %7, align 8, !annotation !4
  %9 = load ptr, ptr %4, align 8
  %10 = getelementptr inbounds nuw %struct.VuDev, ptr %9, i32 0, i32 10
  %11 = load i64, ptr %10, align 8
  %12 = and i64 %11, 67108864
  %13 = icmp ne i64 %12, 0
  br i1 %13, label %14, label %22

14:                                               ; preds = %3
  %15 = load ptr, ptr %4, align 8
  %16 = getelementptr inbounds nuw %struct.VuDev, ptr %15, i32 0, i32 9
  %17 = load ptr, ptr %16, align 8
  %18 = icmp ne ptr %17, null
  br i1 %18, label %19, label %22

19:                                               ; preds = %14
  %20 = load i64, ptr %6, align 8
  %21 = icmp ne i64 %20, 0
  br i1 %21, label %23, label %22

22:                                               ; preds = %19, %14, %3
  store i32 1, ptr %8, align 4
  br label %55

23:                                               ; preds = %19
  %24 = load ptr, ptr %4, align 8
  %25 = getelementptr inbounds nuw %struct.VuDev, ptr %24, i32 0, i32 8
  %26 = load i64, ptr %25, align 8
  %27 = load i64, ptr %5, align 8
  %28 = load i64, ptr %6, align 8
  %29 = add i64 %27, %28
  %30 = sub i64 %29, 1
  %31 = udiv i64 %30, 4096
  %32 = udiv i64 %31, 8
  %33 = icmp ugt i64 %26, %32
  br i1 %33, label %34, label %35

34:                                               ; preds = %23
  br label %36

35:                                               ; preds = %23
  call void @__assert_fail(ptr noundef @.str.110, ptr noundef @.str.40, i32 noundef 738, ptr noundef @__PRETTY_FUNCTION__.vu_log_write) #15
  unreachable

36:                                               ; preds = %34
  %37 = load i64, ptr %5, align 8
  %38 = udiv i64 %37, 4096
  store i64 %38, ptr %7, align 8
  br label %39

39:                                               ; preds = %46, %36
  %40 = load i64, ptr %7, align 8
  %41 = mul i64 %40, 4096
  %42 = load i64, ptr %5, align 8
  %43 = load i64, ptr %6, align 8
  %44 = add i64 %42, %43
  %45 = icmp ult i64 %41, %44
  br i1 %45, label %46, label %53

46:                                               ; preds = %39
  %47 = load ptr, ptr %4, align 8
  %48 = getelementptr inbounds nuw %struct.VuDev, ptr %47, i32 0, i32 9
  %49 = load ptr, ptr %48, align 8
  %50 = load i64, ptr %7, align 8
  call void @vu_log_page(ptr noundef %49, i64 noundef %50)
  %51 = load i64, ptr %7, align 8
  %52 = add i64 %51, 1
  store i64 %52, ptr %7, align 8
  br label %39

53:                                               ; preds = %39
  %54 = load ptr, ptr %4, align 8
  call void @vu_log_kick(ptr noundef %54)
  store i32 0, ptr %8, align 4
  br label %55

55:                                               ; preds = %53, %22
  call void @llvm.lifetime.end.p0(i64 8, ptr %7) #13
  %56 = load i32, ptr %8, align 4
  switch i32 %56, label %58 [
    i32 0, label %57
    i32 1, label %57
  ]

57:                                               ; preds = %55, %55
  ret void

58:                                               ; preds = %55
  unreachable
}