; Function Attrs: nounwind uwtable
define internal fastcc void @vu_log_write(ptr noundef %0, i64 noundef %1, i64 noundef range(i64 0, 4294967296) %2) unnamed_addr #3 {
  %4 = getelementptr inbounds nuw i8, ptr %0, i64 120
  %5 = load i64, ptr %4, align 8
  %6 = and i64 %5, 67108864
  %.not = icmp eq i64 %6, 0
  br i1 %.not, label %vu_log_kick.exit, label %7

7:                                                ; preds = %3
  %8 = getelementptr inbounds nuw i8, ptr %0, i64 112
  %9 = load ptr, ptr %8, align 8
  %10 = icmp ne ptr %9, null
  %11 = icmp ne i64 %2, 0
  %or.cond = and i1 %11, %10
  br i1 %or.cond, label %12, label %vu_log_kick.exit

12:                                               ; preds = %7
  %13 = getelementptr inbounds nuw i8, ptr %0, i64 104
  %14 = load i64, ptr %13, align 8
  %15 = add i64 %2, %1
  %16 = add i64 %15, -1
  %17 = lshr i64 %16, 15
  %18 = icmp ugt i64 %14, %17
  br i1 %18, label %20, label %19

19:                                               ; preds = %12
  tail call void @__assert_fail(ptr noundef nonnull @.str.110, ptr noundef nonnull @.str.40, i32 noundef 738, ptr noundef nonnull @__PRETTY_FUNCTION__.vu_log_write) #23
  unreachable

20:                                               ; preds = %12
  %21 = and i64 %1, -4096
  %22 = icmp ult i64 %21, %15
  br i1 %22, label %.lr.ph.preheader, label %._crit_edge

.lr.ph.preheader:                                 ; preds = %20
  %23 = lshr i64 %1, 12
  br label %.lr.ph

.lr.ph:                                           ; preds = %.lr.ph.preheader, %.lr.ph
  %.015 = phi i64 [ %31, %.lr.ph ], [ %23, %.lr.ph.preheader ]
  %24 = load ptr, ptr %8, align 8
  %25 = lshr i64 %.015, 3
  %26 = getelementptr inbounds nuw i8, ptr %24, i64 %25
  %27 = trunc i64 %.015 to i8
  %28 = and i8 %27, 7
  %29 = shl nuw i8 1, %28
  %30 = atomicrmw or ptr %26, i8 %29 seq_cst, align 1
  %31 = add i64 %.015, 1
  %32 = shl i64 %31, 12
  %33 = icmp ult i64 %32, %15
  br i1 %33, label %.lr.ph, label %._crit_edge

._crit_edge:                                      ; preds = %.lr.ph, %20
  %34 = getelementptr inbounds nuw i8, ptr %0, i64 48
  %35 = load i32, ptr %34, align 8
  %.not.i = icmp eq i32 %35, -1
  br i1 %.not.i, label %vu_log_kick.exit, label %36

36:                                               ; preds = %._crit_edge
  %37 = tail call i32 @eventfd_write(i32 noundef %35, i64 noundef 1) #21
  %38 = icmp slt i32 %37, 0
  br i1 %38, label %39, label %vu_log_kick.exit

39:                                               ; preds = %36
  %40 = tail call ptr @__errno_location() #22
  %41 = load i32, ptr %40, align 4
  %42 = tail call ptr @strerror(i32 noundef %41) #21
  tail call void (ptr, ptr, ...) @vu_panic(ptr noundef nonnull %0, ptr noundef nonnull @.str.102, ptr noundef %42)
  br label %vu_log_kick.exit

vu_log_kick.exit:                                 ; preds = %39, %36, %._crit_edge, %3, %7
  ret void
}